(lp0
(lp1
I147
aI81
aI80
aI103
aI4
aI40
aI128
aI94
aI62
aI54
aI69
aI84
aI66
aI114
aI90
aI36
aI106
aI131
aI102
aI2
aI76
aI48
aI79
aI130
aI26
aI23
aI116
aI67
aI47
aI38
aI35
aI6
aI142
aI87
aI123
aI118
aI44
aI136
aI5
aI143
aI86
aI104
aI120
aI140
aI52
aI141
aI46
aI0
aI122
aI17
aI3
aI85
aI119
aI105
aI22
aI95
aI9
aI14
aI89
aI61
aI49
aI41
aI133
aI12
aI57
aI7
aI21
aI82
aI19
aI121
aI55
aI109
aI124
aI73
aI56
aI11
aI37
aI134
aI58
aI72
aI70
aI20
aI108
aI32
aI145
aI148
aI91
aI39
aI113
aI107
aI101
aI110
aI50
aI8
aI53
aI92
aI59
aI137
aI88
aI117
aI31
aI111
aI10
aI60
aI77
aI42
aI139
aI65
aI27
aI71
aI97
aI126
aI138
aI25
aI16
aI68
aI149
aI144
aI18
aI24
aa(lp2
I112
aI129
aI64
aI100
aI98
aI83
aI43
aI28
aI34
aI15
aI135
aI33
aI1
aI99
aI63
aa(lp3
I127
aI96
aI93
aI125
aI75
aI45
aI115
aI30
aI51
aI29
aI13
aI132
aI74
aI146
aI78
aa.